target datalayout = "e-m:e-p270:32:32-p271:32:32-p272:64:64-i64:64-i128:128-f80:128-n8:16:32:64-S128"
target triple = "x86_64-pc-linux-gnu"

%struct._lv_tabview_t = type { %struct._lv_obj_t, i32, i32 }
%struct._lv_obj_t = type { ptr, ptr, ptr, ptr, ptr, %struct.lv_area_t, i32, i16, i16 }
%struct.lv_area_t = type { i32, i32, i32, i32 }

@lv_tabview_class = constant { ptr, ptr, ptr, ptr, ptr, ptr, i32, i32, i8, i8, i8, [5 x i8] } { ptr @lv_obj_class, ptr @lv_tabview_constructor, ptr null, ptr @lv_tabview_event, ptr null, ptr @.str, i32 536871012, i32 536871012, i8 -128, i8 4, i8 0, [5 x i8] zeroinitializer }, align 8

; Function Attrs: nounwind uwtable
define i32 @lv_tabview_get_tab_active(ptr noundef %0) #0 {
  %2 = alloca ptr, align 8
  %3 = alloca ptr, align 8
  store ptr %0, ptr %2, align 8, !tbaa !3
  br label %4

4:                                                ; preds = %1
  br label %5

5:                                                ; preds = %4
  call void @llvm.lifetime.start.p0(i64 8, ptr %3) #4
  %6 = load ptr, ptr %2, align 8, !tbaa !3
  store ptr %6, ptr %3, align 8, !tbaa !3
  %7 = load ptr, ptr %3, align 8, !tbaa !3
  %8 = getelementptr inbounds nuw %struct._lv_tabview_t, ptr %7, i32 0, i32 1
  %9 = load i32, ptr %8, align 8, !tbaa !16
  call void @llvm.lifetime.end.p0(i64 8, ptr %3) #4
  ret i32 %9
}

; Function Attrs: nounwind uwtable
define internal void @lv_tabview_event(ptr noundef %0, ptr noundef %1) #0 {
  %3 = alloca ptr, align 8
  %4 = alloca ptr, align 8
  %5 = alloca i32, align 4
  %6 = alloca i32, align 4
  %7 = alloca i32, align 4
  %8 = alloca ptr, align 8
  store ptr %0, ptr %3, align 8, !tbaa !3
  store ptr %1, ptr %4, align 8, !tbaa !3
  call void @llvm.lifetime.start.p0(i64 4, ptr %5) #4
  %9 = load ptr, ptr %4, align 8, !tbaa !3
  %10 = call i32 @lv_obj_event_base(ptr noundef @lv_tabview_class, ptr noundef %9)
  store i32 %10, ptr %5, align 4, !tbaa !13
  %11 = load i32, ptr %5, align 4, !tbaa !13
  %12 = icmp ne i32 %11, 1
  br i1 %12, label %13, label %14

13:                                               ; preds = %2
  store i32 1, ptr %6, align 4
  br label %26

14:                                               ; preds = %2
  call void @llvm.lifetime.start.p0(i64 4, ptr %7) #4
  %15 = load ptr, ptr %4, align 8, !tbaa !3
  %16 = call i32 @lv_event_get_code(ptr noundef %15)
  store i32 %16, ptr %7, align 4, !tbaa !13
  call void @llvm.lifetime.start.p0(i64 8, ptr %8) #4
  %17 = load ptr, ptr %4, align 8, !tbaa !3
  %18 = call ptr @lv_event_get_current_target(ptr noundef %17)
  store ptr %18, ptr %8, align 8, !tbaa !3
  %19 = load i32, ptr %7, align 4, !tbaa !13
  %20 = icmp eq i32 %19, 49
  br i1 %20, label %21, label %25

21:                                               ; preds = %14
  %22 = load ptr, ptr %8, align 8, !tbaa !3
  %23 = load ptr, ptr %8, align 8, !tbaa !3
  %24 = call i32 @lv_tabview_get_tab_active(ptr noundef %23)
  call void @lv_tabview_set_active(ptr noundef %22, i32 noundef %24, i32 noundef 0)
  br label %25

25:                                               ; preds = %21, %14
  call void @llvm.lifetime.end.p0(i64 8, ptr %8) #4
  call void @llvm.lifetime.end.p0(i64 4, ptr %7) #4
  store i32 0, ptr %6, align 4
  br label %26

26:                                               ; preds = %25, %13
  call void @llvm.lifetime.end.p0(i64 4, ptr %5) #4
  %27 = load i32, ptr %6, align 4
  switch i32 %27, label %29 [
    i32 0, label %28
    i32 1, label %28
  ]

28:                                               ; preds = %26, %26
  ret void

29:                                               ; preds = %26
  unreachable
}