; Function Attrs: nounwind uwtable
define internal void @lv_tabview_event(ptr nocapture readnone %0, ptr noundef %1) #0 {
  %3 = tail call i32 @lv_obj_event_base(ptr noundef nonnull @lv_tabview_class, ptr noundef %1) #5
  %.not = icmp eq i32 %3, 1
  br i1 %.not, label %4, label %11

4:                                                ; preds = %2
  %5 = tail call i32 @lv_event_get_code(ptr noundef %1) #5
  %6 = tail call ptr @lv_event_get_current_target(ptr noundef %1) #5
  %7 = icmp eq i32 %5, 49
  br i1 %7, label %8, label %11

8:                                                ; preds = %4
  %9 = getelementptr inbounds nuw i8, ptr %6, i64 64
  %10 = load i32, ptr %9, align 8, !tbaa !12
  tail call void @lv_tabview_set_active(ptr noundef %6, i32 noundef %10, i32 noundef 0)
  br label %11

11:                                               ; preds = %4, %8, %2
  ret void
}